; Function Attrs: mustprogress nofree nounwind willreturn memory(write, argmem: readwrite) uwtable
define range(i32 -3, 1) i32 @ma_notch2_reinit(ptr noundef readonly captures(address_is_null) %0, ptr noundef captures(address_is_null) %1) local_unnamed_addr #36 {
  %3 = icmp eq ptr %1, null
  %4 = icmp eq ptr %0, null
  %or.cond = or i1 %4, %3
  br i1 %or.cond, label %ma_biquad_reinit.exit, label %5

5:                                                ; preds = %2
  %6 = getelementptr inbounds nuw i8, ptr %0, i64 16
  %7 = load double, ptr %6, align 8, !tbaa !466, !noalias !627
  %8 = getelementptr inbounds nuw i8, ptr %0, i64 24
  %9 = load double, ptr %8, align 8, !tbaa !467, !noalias !627
  %10 = fmul double %9, 0x401921FB54442D18
  %11 = getelementptr inbounds nuw i8, ptr %0, i64 8
  %12 = load i32, ptr %11, align 8, !tbaa !465, !noalias !627
  %13 = uitofp i32 %12 to double
  %14 = fdiv double %10, %13
  %15 = tail call double @sin(double noundef %14) #69, !tbaa !3, !noalias !627
  %16 = fsub double 0x3FF921FB54442D18, %14
  %17 = tail call double @sin(double noundef %16) #69, !tbaa !3, !noalias !627
  %18 = fmul double %7, 2.000000e+00
  %19 = fdiv double %15, %18
  %20 = fmul double %17, -2.000000e+00
  %21 = fadd double %19, 1.000000e+00
  %22 = fsub double 1.000000e+00, %19
  %23 = load i32, ptr %0, align 8, !tbaa !462, !noalias !627
  %24 = getelementptr inbounds nuw i8, ptr %0, i64 4
  %25 = load i32, ptr %24, align 4, !tbaa !464, !noalias !627
  %26 = fcmp oeq double %21, 0.000000e+00
  br i1 %26, label %ma_biquad_reinit.exit, label %27

27:                                               ; preds = %5
  switch i32 %23, label %ma_biquad_reinit.exit [
    i32 5, label %28
    i32 2, label %28
  ]

28:                                               ; preds = %27, %27
  %29 = load i32, ptr %1, align 8, !tbaa !455
  %.not53.i = icmp eq i32 %29, 0
  %.not54.i = icmp eq i32 %29, %23
  %or.cond57.i = or i1 %.not53.i, %.not54.i
  br i1 %or.cond57.i, label %30, label %ma_biquad_reinit.exit

30:                                               ; preds = %28
  %31 = getelementptr inbounds nuw i8, ptr %1, i64 4
  %32 = load i32, ptr %31, align 4, !tbaa !456
  %.not55.i = icmp eq i32 %32, 0
  %.not56.i = icmp eq i32 %32, %25
  %or.cond26 = select i1 %.not55.i, i1 true, i1 %.not56.i
  br i1 %or.cond26, label %._crit_edge.i, label %ma_biquad_reinit.exit

._crit_edge.i:                                    ; preds = %30
  store i32 %23, ptr %1, align 8, !tbaa !455
  store i32 %25, ptr %31, align 4, !tbaa !456
  %33 = icmp eq i32 %23, 5
  %34 = fdiv double 1.000000e+00, %21
  br i1 %33, label %35, label %46

35:                                               ; preds = %._crit_edge.i
  %36 = fptrunc double %34 to float
  %37 = getelementptr inbounds nuw i8, ptr %1, i64 8
  store float %36, ptr %37, align 8, !tbaa !7
  %38 = fdiv double %20, %21
  %39 = fptrunc double %38 to float
  %40 = getelementptr inbounds nuw i8, ptr %1, i64 12
  store float %39, ptr %40, align 4, !tbaa !7
  %41 = getelementptr inbounds nuw i8, ptr %1, i64 16
  store float %36, ptr %41, align 8, !tbaa !7
  %42 = getelementptr inbounds nuw i8, ptr %1, i64 20
  store float %39, ptr %42, align 4, !tbaa !7
  %43 = fdiv double %22, %21
  %44 = fptrunc double %43 to float
  %45 = getelementptr inbounds nuw i8, ptr %1, i64 24
  store float %44, ptr %45, align 8, !tbaa !7
  br label %ma_biquad_reinit.exit

46:                                               ; preds = %._crit_edge.i
  %47 = fmul double %34, 1.638400e+04
  %48 = fptosi double %47 to i32
  %49 = getelementptr inbounds nuw i8, ptr %1, i64 8
  store i32 %48, ptr %49, align 8, !tbaa !7
  %50 = fdiv double %20, %21
  %51 = fmul double %50, 1.638400e+04
  %52 = fptosi double %51 to i32
  %53 = getelementptr inbounds nuw i8, ptr %1, i64 12
  store i32 %52, ptr %53, align 4, !tbaa !7
  %54 = getelementptr inbounds nuw i8, ptr %1, i64 16
  store i32 %48, ptr %54, align 8, !tbaa !7
  %55 = getelementptr inbounds nuw i8, ptr %1, i64 20
  store i32 %52, ptr %55, align 4, !tbaa !7
  %56 = fdiv double %22, %21
  %57 = fmul double %56, 1.638400e+04
  %58 = fptosi double %57 to i32
  %59 = getelementptr inbounds nuw i8, ptr %1, i64 24
  store i32 %58, ptr %59, align 8, !tbaa !7
  br label %ma_biquad_reinit.exit

ma_biquad_reinit.exit:                            ; preds = %30, %46, %35, %28, %27, %5, %2
  %.0 = phi i32 [ -2, %2 ], [ -2, %5 ], [ -2, %27 ], [ 0, %46 ], [ 0, %35 ], [ -3, %28 ], [ -3, %30 ]
  ret i32 %.0
}